; Function Attrs: mustprogress noinline uwtable
define dso_local noundef ptr @_ZN6google8protobuf5Arena18CreateMaybeMessageIN4onnx14AttributeProtoEJEEEPT_PS1_DpOT0_(ptr noundef %0) local_unnamed_addr #18 align 2 personality ptr @__gxx_personality_v0 {
  %2 = icmp eq ptr %0, null
  br i1 %2, label %3, label %7

3:                                                ; preds = %1
  %4 = tail call noalias noundef nonnull dereferenceable(192) ptr @_Znwm(i64 noundef 192) #25
  invoke void @_ZN4onnx14AttributeProtoC2EPN6google8protobuf5ArenaE(ptr noundef nonnull align 8 dereferenceable(192) %4, ptr noundef null)
          to label %_ZN6google8protobuf5Arena21CreateMessageInternalIN4onnx14AttributeProtoEEEPT_PS1_.exit unwind label %5

5:                                                ; preds = %3
  %6 = landingpad { ptr, i32 }
          cleanup
  tail call void @_ZdlPv(ptr noundef nonnull %4) #24
  resume { ptr, i32 } %6

7:                                                ; preds = %1
  %8 = getelementptr inbounds nuw i8, ptr %0, i64 112
  %9 = load ptr, ptr %8, align 8, !tbaa !132
  %.not.i = icmp eq ptr %9, null
  br i1 %.not.i, label %_ZNK6google8protobuf5Arena9AllocHookEPKSt9type_infom.exit, label %10, !prof !11

10:                                               ; preds = %7
  tail call void @_ZNK6google8protobuf5Arena17OnArenaAllocationEPKSt9type_infom(ptr noundef nonnull align 8 dereferenceable(120) %0, ptr noundef nonnull @_ZTIN4onnx14AttributeProtoE, i64 noundef 192)
  br label %_ZNK6google8protobuf5Arena9AllocHookEPKSt9type_infom.exit

_ZNK6google8protobuf5Arena9AllocHookEPKSt9type_infom.exit: ; preds = %7, %10
  %11 = tail call noundef ptr @_ZN6google8protobuf5Arena21AllocateAlignedNoHookEm(ptr noundef nonnull align 8 dereferenceable(120) %0, i64 noundef 192)
  tail call void @_ZN4onnx14AttributeProtoC2EPN6google8protobuf5ArenaE(ptr noundef nonnull align 8 dereferenceable(192) %11, ptr noundef nonnull %0)
  br label %_ZN6google8protobuf5Arena21CreateMessageInternalIN4onnx14AttributeProtoEEEPT_PS1_.exit

_ZN6google8protobuf5Arena21CreateMessageInternalIN4onnx14AttributeProtoEEEPT_PS1_.exit: ; preds = %3, %_ZNK6google8protobuf5Arena9AllocHookEPKSt9type_infom.exit
  %.0.i = phi ptr [ %11, %_ZNK6google8protobuf5Arena9AllocHookEPKSt9type_infom.exit ], [ %4, %3 ]
  ret ptr %.0.i
}